target datalayout = "e-m:e-p270:32:32-p271:32:32-p272:64:64-i64:64-i128:128-f80:128-n8:16:32:64-S128"
target triple = "x86_64-pc-linux-gnu"

%struct.ParseState = type { ptr, ptr, i32, i32, ptr, ptr, ptr, ptr, ptr, ptr, i8, ptr, ptr, ptr, ptr, ptr, ptr, i8, ptr, i32, i32, ptr, ptr, i8, i8, ptr, i8, i8, i8, i8, i8, ptr, ptr, ptr, ptr, ptr, ptr }
%struct.ForEachState = type { ptr, i32 }
%struct.List = type { i32, i32, i32, ptr, [0 x %union.ListCell] }
%union.ListCell = type { ptr }
%struct.CommonTableExpr = type { i32, ptr, ptr, i32, ptr, ptr, ptr, i32, i8, i32, ptr, ptr, ptr, ptr }

; Function Attrs: nounwind uwtable
define dso_local ptr @scanNameSpaceForCTE(ptr noundef %0, ptr noundef %1, ptr noundef %2) #0 {
  %4 = alloca ptr, align 8
  %5 = alloca ptr, align 8
  %6 = alloca ptr, align 8
  %7 = alloca ptr, align 8
  %8 = alloca i32, align 4
  %9 = alloca ptr, align 8
  %10 = alloca %struct.ForEachState, align 8
  %11 = alloca i32, align 4
  %12 = alloca ptr, align 8
  store ptr %0, ptr %5, align 8
  store ptr %1, ptr %6, align 8
  store ptr %2, ptr %7, align 8
  call void @llvm.lifetime.start.p0(i64 4, ptr %8) #8
  store i32 0, ptr %8, align 4
  br label %13

13:                                               ; preds = %76, %3
  %14 = load ptr, ptr %5, align 8
  %15 = icmp ne ptr %14, null
  br i1 %15, label %16, label %82

16:                                               ; preds = %13
  call void @llvm.lifetime.start.p0(i64 8, ptr %9) #8
  call void @llvm.lifetime.start.p0(i64 16, ptr %10) #8
  %17 = getelementptr inbounds nuw %struct.ForEachState, ptr %10, i32 0, i32 0
  %18 = load ptr, ptr %5, align 8
  %19 = getelementptr inbounds nuw %struct.ParseState, ptr %18, i32 0, i32 11
  %20 = load ptr, ptr %19, align 8
  store ptr %20, ptr %17, align 8
  %21 = getelementptr inbounds nuw %struct.ForEachState, ptr %10, i32 0, i32 1
  store i32 0, ptr %21, align 8
  %22 = getelementptr i8, ptr %10, i64 12
  call void @llvm.memset.p0.i64(ptr align 4 %22, i8 0, i64 4, i1 false)
  br label %23

23:                                               ; preds = %66, %16
  %24 = getelementptr inbounds nuw %struct.ForEachState, ptr %10, i32 0, i32 0
  %25 = load ptr, ptr %24, align 8
  %26 = icmp ne ptr %25, null
  br i1 %26, label %27, label %44

27:                                               ; preds = %23
  %28 = getelementptr inbounds nuw %struct.ForEachState, ptr %10, i32 0, i32 1
  %29 = load i32, ptr %28, align 8
  %30 = getelementptr inbounds nuw %struct.ForEachState, ptr %10, i32 0, i32 0
  %31 = load ptr, ptr %30, align 8
  %32 = getelementptr inbounds nuw %struct.List, ptr %31, i32 0, i32 1
  %33 = load i32, ptr %32, align 4
  %34 = icmp slt i32 %29, %33
  br i1 %34, label %35, label %44

35:                                               ; preds = %27
  %36 = getelementptr inbounds nuw %struct.ForEachState, ptr %10, i32 0, i32 0
  %37 = load ptr, ptr %36, align 8
  %38 = getelementptr inbounds nuw %struct.List, ptr %37, i32 0, i32 3
  %39 = load ptr, ptr %38, align 8
  %40 = getelementptr inbounds nuw %struct.ForEachState, ptr %10, i32 0, i32 1
  %41 = load i32, ptr %40, align 8
  %42 = sext i32 %41 to i64
  %43 = getelementptr inbounds %union.ListCell, ptr %39, i64 %42
  store ptr %43, ptr %9, align 8
  br label %45

44:                                               ; preds = %27, %23
  store ptr null, ptr %9, align 8
  br label %45

45:                                               ; preds = %44, %35
  %46 = phi i32 [ 1, %35 ], [ 0, %44 ]
  %47 = icmp ne i32 %46, 0
  br i1 %47, label %49, label %48

48:                                               ; preds = %45
  store i32 5, ptr %11, align 4
  br label %70

49:                                               ; preds = %45
  call void @llvm.lifetime.start.p0(i64 8, ptr %12) #8
  %50 = load ptr, ptr %9, align 8
  %51 = load ptr, ptr %50, align 8
  store ptr %51, ptr %12, align 8
  %52 = load ptr, ptr %12, align 8
  %53 = getelementptr inbounds nuw %struct.CommonTableExpr, ptr %52, i32 0, i32 1
  %54 = load ptr, ptr %53, align 8
  %55 = load ptr, ptr %6, align 8
  %56 = call i32 @strcmp(ptr noundef %54, ptr noundef %55) #10
  %57 = icmp eq i32 %56, 0
  br i1 %57, label %58, label %62

58:                                               ; preds = %49
  %59 = load i32, ptr %8, align 4
  %60 = load ptr, ptr %7, align 8
  store i32 %59, ptr %60, align 4
  %61 = load ptr, ptr %12, align 8
  store ptr %61, ptr %4, align 8
  store i32 1, ptr %11, align 4
  br label %63

62:                                               ; preds = %49
  store i32 0, ptr %11, align 4
  br label %63

63:                                               ; preds = %62, %58
  call void @llvm.lifetime.end.p0(i64 8, ptr %12) #8
  %64 = load i32, ptr %11, align 4
  switch i32 %64, label %70 [
    i32 0, label %65
  ]

65:                                               ; preds = %63
  br label %66

66:                                               ; preds = %65
  %67 = getelementptr inbounds nuw %struct.ForEachState, ptr %10, i32 0, i32 1
  %68 = load i32, ptr %67, align 8
  %69 = add i32 %68, 1
  store i32 %69, ptr %67, align 8
  br label %23, !llvm.loop !10

70:                                               ; preds = %63, %48
  call void @llvm.lifetime.end.p0(i64 16, ptr %10) #8
  %71 = load i32, ptr %11, align 4
  switch i32 %71, label %73 [
    i32 5, label %72
  ]

72:                                               ; preds = %70
  store i32 0, ptr %11, align 4
  br label %73

73:                                               ; preds = %72, %70
  call void @llvm.lifetime.end.p0(i64 8, ptr %9) #8
  %74 = load i32, ptr %11, align 4
  switch i32 %74, label %83 [
    i32 0, label %75
  ]

75:                                               ; preds = %73
  br label %76

76:                                               ; preds = %75
  %77 = load ptr, ptr %5, align 8
  %78 = getelementptr inbounds nuw %struct.ParseState, ptr %77, i32 0, i32 0
  %79 = load ptr, ptr %78, align 8
  store ptr %79, ptr %5, align 8
  %80 = load i32, ptr %8, align 4
  %81 = add i32 %80, 1
  store i32 %81, ptr %8, align 4
  br label %13, !llvm.loop !11

82:                                               ; preds = %13
  store ptr null, ptr %4, align 8
  store i32 1, ptr %11, align 4
  br label %83

83:                                               ; preds = %82, %73
  call void @llvm.lifetime.end.p0(i64 4, ptr %8) #8
  %84 = load ptr, ptr %4, align 8
  ret ptr %84
}