; Function Attrs: nofree nounwind memory(read, argmem: readwrite, inaccessiblemem: none) uwtable
define dso_local ptr @scanNameSpaceForCTE(ptr noundef readonly captures(address_is_null) %0, ptr noundef readonly captures(none) %1, ptr noundef writeonly captures(none) %2) local_unnamed_addr #3 {
  %.not43 = icmp eq ptr %0, null
  br i1 %.not43, label %.loopexit, label %.lr.ph49

.lr.ph49:                                         ; preds = %3, %._crit_edge39.split.us
  %.02147 = phi ptr [ %18, %._crit_edge39.split.us ], [ %0, %3 ]
  %.02244 = phi i32 [ %19, %._crit_edge39.split.us ], [ 0, %3 ]
  %4 = getelementptr inbounds nuw i8, ptr %.02147, i64 80
  %5 = load ptr, ptr %4, align 8
  %.not25 = icmp eq ptr %5, null
  br i1 %.not25, label %._crit_edge39.split.us, label %.lr.ph

.lr.ph:                                           ; preds = %.lr.ph49
  %6 = getelementptr inbounds nuw i8, ptr %5, i64 4
  %7 = load i32, ptr %6, align 4
  %8 = icmp sgt i32 %7, 0
  br i1 %8, label %.lr.ph42, label %._crit_edge39.split.us

.lr.ph42:                                         ; preds = %.lr.ph
  %9 = getelementptr inbounds nuw i8, ptr %5, i64 16
  %10 = load ptr, ptr %9, align 8
  %wide.trip.count = zext nneg i32 %7 to i64
  br label %12

11:                                               ; preds = %12
  %indvars.iv.next = add nuw nsw i64 %indvars.iv, 1
  %exitcond.not = icmp eq i64 %indvars.iv.next, %wide.trip.count
  br i1 %exitcond.not, label %._crit_edge39.split.us, label %12

12:                                               ; preds = %.lr.ph42, %11
  %indvars.iv = phi i64 [ 0, %.lr.ph42 ], [ %indvars.iv.next, %11 ]
  %13 = getelementptr inbounds nuw %union.ListCell, ptr %10, i64 %indvars.iv
  %14 = load ptr, ptr %13, align 8
  %15 = getelementptr inbounds nuw i8, ptr %14, i64 8
  %16 = load ptr, ptr %15, align 8
  %17 = tail call i32 @strcmp(ptr noundef nonnull dereferenceable(1) %16, ptr noundef nonnull dereferenceable(1) %1) #12
  %.not27 = icmp eq i32 %17, 0
  br i1 %.not27, label %.split, label %11

.split:                                           ; preds = %12
  store i32 %.02244, ptr %2, align 4
  br label %.loopexit

._crit_edge39.split.us:                           ; preds = %11, %.lr.ph, %.lr.ph49
  %18 = load ptr, ptr %.02147, align 8
  %19 = add i32 %.02244, 1
  %.not = icmp eq ptr %18, null
  br i1 %.not, label %.loopexit, label %.lr.ph49, !llvm.loop !8

.loopexit:                                        ; preds = %._crit_edge39.split.us, %3, %.split
  %.4 = phi ptr [ %14, %.split ], [ null, %3 ], [ null, %._crit_edge39.split.us ]
  ret ptr %.4
}